; ModuleID = '29/1901.c'
source_filename = "29/1901.c"
target datalayout = "e-m:e-p270:32:32-p271:32:32-p272:64:64-i64:64-f80:128-n8:16:32:64-S128"
target triple = "x86_64-pc-linux-gnu"

@.str = private unnamed_addr constant [3 x i8] c"%d\00", align 1
@.str.1 = private unnamed_addr constant [6 x i8] c"%.3f\0A\00", align 1

; Function Attrs: noinline nounwind uwtable
define dso_local i32 @main() #0 {
  %1 = alloca i32, align 4
  %2 = alloca [1000 x i32], align 16
  %3 = alloca [1000 x i32], align 16
  %4 = alloca [1000 x i32], align 16
  %5 = alloca i32, align 4
  %6 = alloca i32, align 4
  %7 = alloca i32, align 4
  %8 = alloca i32, align 4
  %9 = alloca [1000 x float], align 16
  %10 = alloca float, align 4
  store i32 0, i32* %1, align 4
  %11 = call i32 (i8*, ...) @__isoc99_scanf(i8* getelementptr inbounds ([3 x i8], [3 x i8]* @.str, i64 0, i64 0), i32* %5)
  %12 = getelementptr inbounds [1000 x i32], [1000 x i32]* %2, i64 0, i64 1
  store i32 1, i32* %12, align 4
  %13 = getelementptr inbounds [1000 x i32], [1000 x i32]* %2, i64 0, i64 2
  store i32 2, i32* %13, align 8
  %14 = getelementptr inbounds [1000 x i32], [1000 x i32]* %3, i64 0, i64 1
  store i32 2, i32* %14, align 4
  %15 = getelementptr inbounds [1000 x i32], [1000 x i32]* %3, i64 0, i64 2
  store i32 3, i32* %15, align 8
  store i32 1, i32* %7, align 4
  br label %16

16:                                               ; preds = %88, %0
  %17 = load i32, i32* %7, align 4
  %18 = load i32, i32* %5, align 4
  %19 = icmp sle i32 %17, %18
  br i1 %19, label %20, label %91

20:                                               ; preds = %16
  %21 = load i32, i32* %7, align 4
  %22 = sext i32 %21 to i64
  %23 = getelementptr inbounds [1000 x i32], [1000 x i32]* %4, i64 0, i64 %22
  %24 = load i32, i32* %23, align 4
  store i32 %24, i32* %8, align 4
  %25 = call i32 (i8*, ...) @__isoc99_scanf(i8* getelementptr inbounds ([3 x i8], [3 x i8]* @.str, i64 0, i64 0), i32* %8)
  store float 0.000000e+00, float* %10, align 4
  store i32 1, i32* %6, align 4
  br label %26

26:                                               ; preds = %81, %20
  %27 = load i32, i32* %6, align 4
  %28 = load i32, i32* %8, align 4
  %29 = icmp sle i32 %27, %28
  br i1 %29, label %30, label %84

30:                                               ; preds = %26
  %31 = load i32, i32* %6, align 4
  %32 = add nsw i32 %31, 1
  %33 = sext i32 %32 to i64
  %34 = getelementptr inbounds [1000 x i32], [1000 x i32]* %2, i64 0, i64 %33
  %35 = load i32, i32* %34, align 4
  %36 = load i32, i32* %6, align 4
  %37 = sext i32 %36 to i64
  %38 = getelementptr inbounds [1000 x i32], [1000 x i32]* %2, i64 0, i64 %37
  %39 = load i32, i32* %38, align 4
  %40 = add nsw i32 %35, %39
  %41 = load i32, i32* %6, align 4
  %42 = add nsw i32 %41, 2
  %43 = sext i32 %42 to i64
  %44 = getelementptr inbounds [1000 x i32], [1000 x i32]* %2, i64 0, i64 %43
  store i32 %40, i32* %44, align 4
  %45 = load i32, i32* %6, align 4
  %46 = add nsw i32 %45, 1
  %47 = sext i32 %46 to i64
  %48 = getelementptr inbounds [1000 x i32], [1000 x i32]* %3, i64 0, i64 %47
  %49 = load i32, i32* %48, align 4
  %50 = load i32, i32* %6, align 4
  %51 = sext i32 %50 to i64
  %52 = getelementptr inbounds [1000 x i32], [1000 x i32]* %3, i64 0, i64 %51
  %53 = load i32, i32* %52, align 4
  %54 = add nsw i32 %49, %53
  %55 = load i32, i32* %6, align 4
  %56 = add nsw i32 %55, 2
  %57 = sext i32 %56 to i64
  %58 = getelementptr inbounds [1000 x i32], [1000 x i32]* %3, i64 0, i64 %57
  store i32 %54, i32* %58, align 4
  %59 = load i32, i32* %6, align 4
  %60 = sext i32 %59 to i64
  %61 = getelementptr inbounds [1000 x i32], [1000 x i32]* %3, i64 0, i64 %60
  %62 = load i32, i32* %61, align 4
  %63 = sitofp i32 %62 to double
  %64 = fmul double 1.000000e+00, %63
  %65 = load i32, i32* %6, align 4
  %66 = sext i32 %65 to i64
  %67 = getelementptr inbounds [1000 x i32], [1000 x i32]* %2, i64 0, i64 %66
  %68 = load i32, i32* %67, align 4
  %69 = sitofp i32 %68 to double
  %70 = fdiv double %64, %69
  %71 = fptrunc double %70 to float
  %72 = load i32, i32* %6, align 4
  %73 = sext i32 %72 to i64
  %74 = getelementptr inbounds [1000 x float], [1000 x float]* %9, i64 0, i64 %73
  store float %71, float* %74, align 4
  %75 = load float, float* %10, align 4
  %76 = load i32, i32* %6, align 4
  %77 = sext i32 %76 to i64
  %78 = getelementptr inbounds [1000 x float], [1000 x float]* %9, i64 0, i64 %77
  %79 = load float, float* %78, align 4
  %80 = fadd float %75, %79
  store float %80, float* %10, align 4
  br label %81

81:                                               ; preds = %30
  %82 = load i32, i32* %6, align 4
  %83 = add nsw i32 %82, 1
  store i32 %83, i32* %6, align 4
  br label %26

84:                                               ; preds = %26
  %85 = load float, float* %10, align 4
  %86 = fpext float %85 to double
  %87 = call i32 (i8*, ...) @printf(i8* getelementptr inbounds ([6 x i8], [6 x i8]* @.str.1, i64 0, i64 0), double %86)
  br label %88

88:                                               ; preds = %84
  %89 = load i32, i32* %7, align 4
  %90 = add nsw i32 %89, 1
  store i32 %90, i32* %7, align 4
  br label %16

91:                                               ; preds = %16
  %92 = load i32, i32* %1, align 4
  ret i32 %92
}

declare dso_local i32 @__isoc99_scanf(i8*, ...) #1

declare dso_local i32 @printf(i8*, ...) #1


!llvm.module.flags = !{!0}
!llvm.ident = !{!1}

!0 = !{i32 1, !"wchar_size", i32 4}
!1 = !{!"clang version 10.0.0-4ubuntu1 "}
